target datalayout = "e-m:e-p270:32:32-p271:32:32-p272:64:64-i64:64-i128:128-f80:128-n8:16:32:64-S128"
target triple = "x86_64-pc-linux-gnu"

%struct.pmix_proc = type { [256 x i8], i32 }

; Function Attrs: nounwind uwtable
define zeroext i1 @pmix_notify_check_affected(ptr noundef %0, i64 noundef %1, ptr noundef %2, i64 noundef %3) #0 {
  %5 = alloca i1, align 1
  %6 = alloca ptr, align 8
  %7 = alloca i64, align 8
  %8 = alloca ptr, align 8
  %9 = alloca i64, align 8
  %10 = alloca i64, align 8
  %11 = alloca i64, align 8
  %12 = alloca i32, align 4
  store ptr %0, ptr %6, align 8, !tbaa !7
  store i64 %1, ptr %7, align 8, !tbaa !13
  store ptr %2, ptr %8, align 8, !tbaa !7
  store i64 %3, ptr %9, align 8, !tbaa !13
  call void @llvm.lifetime.start.p0(i64 8, ptr %10) #13
  call void @llvm.lifetime.start.p0(i64 8, ptr %11) #13
  %13 = load ptr, ptr %6, align 8, !tbaa !7
  %14 = icmp eq ptr null, %13
  br i1 %14, label %15, label %16

15:                                               ; preds = %4
  store i1 true, ptr %5, align 1
  store i32 1, ptr %12, align 4
  br label %48

16:                                               ; preds = %4
  %17 = load ptr, ptr %8, align 8, !tbaa !7
  %18 = icmp eq ptr null, %17
  br i1 %18, label %19, label %20

19:                                               ; preds = %16
  store i1 true, ptr %5, align 1
  store i32 1, ptr %12, align 4
  br label %48

20:                                               ; preds = %16
  store i64 0, ptr %11, align 8, !tbaa !13
  br label %21

21:                                               ; preds = %44, %20
  %22 = load i64, ptr %11, align 8, !tbaa !13
  %23 = load i64, ptr %9, align 8, !tbaa !13
  %24 = icmp ult i64 %22, %23
  br i1 %24, label %25, label %47

25:                                               ; preds = %21
  store i64 0, ptr %10, align 8, !tbaa !13
  br label %26

26:                                               ; preds = %40, %25
  %27 = load i64, ptr %10, align 8, !tbaa !13
  %28 = load i64, ptr %7, align 8, !tbaa !13
  %29 = icmp ult i64 %27, %28
  br i1 %29, label %30, label %43

30:                                               ; preds = %26
  %31 = load ptr, ptr %8, align 8, !tbaa !7
  %32 = load i64, ptr %11, align 8, !tbaa !13
  %33 = getelementptr inbounds nuw %struct.pmix_proc, ptr %31, i64 %32
  %34 = load ptr, ptr %6, align 8, !tbaa !7
  %35 = load i64, ptr %10, align 8, !tbaa !13
  %36 = getelementptr inbounds nuw %struct.pmix_proc, ptr %34, i64 %35
  %37 = call zeroext i1 @PMIx_Check_procid(ptr noundef %33, ptr noundef %36)
  br i1 %37, label %38, label %39

38:                                               ; preds = %30
  store i1 true, ptr %5, align 1
  store i32 1, ptr %12, align 4
  br label %48

39:                                               ; preds = %30
  br label %40

40:                                               ; preds = %39
  %41 = load i64, ptr %10, align 8, !tbaa !13
  %42 = add i64 %41, 1
  store i64 %42, ptr %10, align 8, !tbaa !13
  br label %26, !llvm.loop !211

43:                                               ; preds = %26
  br label %44

44:                                               ; preds = %43
  %45 = load i64, ptr %11, align 8, !tbaa !13
  %46 = add i64 %45, 1
  store i64 %46, ptr %11, align 8, !tbaa !13
  br label %21, !llvm.loop !212

47:                                               ; preds = %21
  store i1 false, ptr %5, align 1
  store i32 1, ptr %12, align 4
  br label %48

48:                                               ; preds = %47, %38, %19, %15
  call void @llvm.lifetime.end.p0(i64 8, ptr %11) #13
  call void @llvm.lifetime.end.p0(i64 8, ptr %10) #13
  %49 = load i1, ptr %5, align 1
  ret i1 %49
}