; Function Attrs: nounwind uwtable
define noundef zeroext i1 @pmix_notify_check_affected(ptr noundef %0, i64 noundef %1, ptr noundef %2, i64 noundef %3) local_unnamed_addr #0 {
  %5 = icmp eq ptr %0, null
  %6 = icmp eq ptr %2, null
  %or.cond = or i1 %5, %6
  br i1 %or.cond, label %.loopexit, label %.preheader16

.preheader16:                                     ; preds = %4
  %.not = icmp eq i64 %3, 0
  %.not20 = icmp eq i64 %1, 0
  %or.cond25 = or i1 %.not, %.not20
  br i1 %or.cond25, label %.loopexit, label %.preheader.us

.preheader.us:                                    ; preds = %.preheader16, %._crit_edge.us
  %.019.us = phi i64 [ %13, %._crit_edge.us ], [ 0, %.preheader16 ]
  %7 = getelementptr inbounds nuw %struct.pmix_proc, ptr %2, i64 %.019.us
  br label %10

8:                                                ; preds = %10
  %9 = add nuw i64 %.01218.us, 1
  %exitcond.not = icmp eq i64 %9, %1
  br i1 %exitcond.not, label %._crit_edge.us, label %10, !llvm.loop !165

10:                                               ; preds = %.preheader.us, %8
  %.01218.us = phi i64 [ 0, %.preheader.us ], [ %9, %8 ]
  %11 = getelementptr inbounds nuw %struct.pmix_proc, ptr %0, i64 %.01218.us
  %12 = tail call zeroext i1 @PMIx_Check_procid(ptr noundef nonnull %7, ptr noundef nonnull %11) #15
  br i1 %12, label %.loopexit, label %8

._crit_edge.us:                                   ; preds = %8
  %13 = add nuw i64 %.019.us, 1
  %exitcond23.not = icmp eq i64 %13, %3
  br i1 %exitcond23.not, label %.loopexit, label %.preheader.us, !llvm.loop !166

.loopexit:                                        ; preds = %._crit_edge.us, %10, %.preheader16, %4
  %.013 = phi i1 [ true, %4 ], [ false, %.preheader16 ], [ true, %10 ], [ false, %._crit_edge.us ]
  ret i1 %.013
}